target datalayout = "e-m:e-p270:32:32-p271:32:32-p272:64:64-i64:64-i128:128-f80:128-n8:16:32:64-S128"
target triple = "x86_64-pc-linux-gnu"

%struct.lstopo_output = type { ptr, i32, i32, i32, ptr, i32, i32, i32, i32, i32, i32, i32, i32, ptr, ptr, i32, i32, i64, i64, i64, i32, [3 x [128 x i8]], i32, i32, ptr, i32, i32, i32, i32, i32, i32, %struct.hwloc_calc_level, i32, i32, i32, i64, [256 x i8], i32, i32, i32, i32, i32, float, [20 x i32], i32, i32, i32, [20 x i32], i32, [20 x i32], i32, [20 x i32], i32, i32, i32, i32, ptr, ptr, i32, [20 x i32], [20 x i32], [20 x i32], ptr, ptr, i64, ptr, i32, i32, i32 }
%struct.hwloc_calc_level = type { i32, i32, %union.hwloc_obj_attr_u, [32 x i8], i32, i32, i32, i32 }
%union.hwloc_obj_attr_u = type { %struct.hwloc_numanode_attr_s, [24 x i8] }
%struct.hwloc_numanode_attr_s = type { i64, i32, ptr }
%struct.lstopo_color = type { i32, i32, i32, i32, %union.lstopo_color_private_u, ptr }
%union.lstopo_color_private_u = type { %struct.lstopo_color_private_ascii_s }
%struct.lstopo_color_private_ascii_s = type { i32 }
%struct.lstopo_color_private_fig_s = type { i32 }
%struct.hwloc_obj = type { i32, ptr, i32, ptr, i64, ptr, i32, i32, ptr, ptr, ptr, i32, ptr, ptr, i32, ptr, ptr, ptr, i32, i32, ptr, i32, ptr, i32, ptr, ptr, ptr, ptr, ptr, %struct.hwloc_infos_s, ptr, i64 }
%struct.hwloc_infos_s = type { ptr, i32, i32 }
%struct.lstopo_obj_userdata = type { %struct.hwloc_utils_userdata, i32, i32, %struct.lstopo_style, i32, i32, i32, i32, %struct.lstopo_children_position, %struct.lstopo_children_position, %struct.lstopo_children_position, %struct.lstopo_children_position, i32, i32, i32, [4 x %struct.lstopo_text_line], i32, i32 }
%struct.hwloc_utils_userdata = type { ptr, i64, ptr, ptr }
%struct.lstopo_style = type { ptr, ptr, ptr }
%struct.lstopo_children_position = type { i32, i32, i32, i32, i32, i32, ptr }
%struct.lstopo_text_line = type { [128 x i8], i32, i32 }

@.str.11 = private unnamed_addr constant [44 x i8] c"2 2 %u %u 0 %d %u -1 20 %u.0 0 0 -1 0 0 5\0A\09\00", align 1
@.str.12 = private unnamed_addr constant [7 x i8] c" %u %u\00", align 1
@.str.13 = private unnamed_addr constant [2 x i8] c"\0A\00", align 1

; Function Attrs: inlinehint nounwind uwtable
define internal i32 @lstopo_obj_cpukind_style(ptr noundef %0, ptr noundef %1) #5 {
  %3 = alloca i32, align 4
  %4 = alloca ptr, align 8
  %5 = alloca ptr, align 8
  %6 = alloca ptr, align 8
  store ptr %0, ptr %4, align 8, !tbaa !4
  store ptr %1, ptr %5, align 8, !tbaa !36
  %7 = load ptr, ptr %4, align 8, !tbaa !4
  %8 = getelementptr inbounds nuw %struct.lstopo_output, ptr %7, i32 0, i32 55
  %9 = load i32, ptr %8, align 8, !tbaa !41
  %10 = icmp ne i32 %9, 0
  br i1 %10, label %11, label %27

11:                                               ; preds = %2
  %12 = load ptr, ptr %5, align 8, !tbaa !36
  %13 = icmp ne ptr %12, null
  br i1 %13, label %14, label %26

14:                                               ; preds = %11
  %15 = load ptr, ptr %5, align 8, !tbaa !36
  %16 = getelementptr inbounds nuw %struct.hwloc_obj, ptr %15, i32 0, i32 30
  %17 = load ptr, ptr %16, align 8, !tbaa !42
  %18 = icmp ne ptr %17, null
  br i1 %18, label %19, label %26

19:                                               ; preds = %14
  call void @llvm.lifetime.start.p0(i64 8, ptr %6) #7
  %20 = load ptr, ptr %5, align 8, !tbaa !36
  %21 = getelementptr inbounds nuw %struct.hwloc_obj, ptr %20, i32 0, i32 30
  %22 = load ptr, ptr %21, align 8, !tbaa !42
  store ptr %22, ptr %6, align 8, !tbaa !48
  %23 = load ptr, ptr %6, align 8, !tbaa !48
  %24 = getelementptr inbounds nuw %struct.lstopo_obj_userdata, ptr %23, i32 0, i32 5
  %25 = load i32, ptr %24, align 4, !tbaa !50
  store i32 %25, ptr %3, align 4
  call void @llvm.lifetime.end.p0(i64 8, ptr %6) #7
  br label %28

26:                                               ; preds = %14, %11
  br label %27

27:                                               ; preds = %26, %2
  store i32 0, ptr %3, align 4
  br label %28

28:                                               ; preds = %27, %19
  %29 = load i32, ptr %3, align 4
  ret i32 %29
}

; Function Attrs: nounwind uwtable
define internal void @fig_box(ptr noundef %0, ptr noundef %1, i32 noundef %2, i32 noundef %3, i32 noundef %4, i32 noundef %5, i32 noundef %6, ptr noundef %7, i32 noundef %8) #0 {
  %10 = alloca ptr, align 8
  %11 = alloca ptr, align 8
  %12 = alloca i32, align 4
  %13 = alloca i32, align 4
  %14 = alloca i32, align 4
  %15 = alloca i32, align 4
  %16 = alloca i32, align 4
  %17 = alloca ptr, align 8
  %18 = alloca i32, align 4
  %19 = alloca ptr, align 8
  %20 = alloca i32, align 4
  %21 = alloca i32, align 4
  %22 = alloca i32, align 4
  %23 = alloca i32, align 4
  %24 = alloca i32, align 4
  store ptr %0, ptr %10, align 8, !tbaa !4
  store ptr %1, ptr %11, align 8, !tbaa !29
  store i32 %2, ptr %12, align 4, !tbaa !24
  store i32 %3, ptr %13, align 4, !tbaa !24
  store i32 %4, ptr %14, align 4, !tbaa !24
  store i32 %5, ptr %15, align 4, !tbaa !24
  store i32 %6, ptr %16, align 4, !tbaa !24
  store ptr %7, ptr %17, align 8, !tbaa !36
  store i32 %8, ptr %18, align 4, !tbaa !24
  call void @llvm.lifetime.start.p0(i64 8, ptr %19) #7
  %25 = load ptr, ptr %10, align 8, !tbaa !4
  %26 = getelementptr inbounds nuw %struct.lstopo_output, ptr %25, i32 0, i32 4
  %27 = load ptr, ptr %26, align 8, !tbaa !25
  store ptr %27, ptr %19, align 8, !tbaa !23
  call void @llvm.lifetime.start.p0(i64 4, ptr %20) #7
  %28 = load ptr, ptr %10, align 8, !tbaa !4
  %29 = load ptr, ptr %17, align 8, !tbaa !36
  %30 = call i32 @lstopo_obj_cpukind_style(ptr noundef %28, ptr noundef %29)
  store i32 %30, ptr %20, align 4, !tbaa !24
  call void @llvm.lifetime.start.p0(i64 4, ptr %21) #7
  store i32 0, ptr %21, align 4, !tbaa !24
  call void @llvm.lifetime.start.p0(i64 4, ptr %22) #7
  store i32 0, ptr %22, align 4, !tbaa !24
  call void @llvm.lifetime.start.p0(i64 4, ptr %23) #7
  %31 = load ptr, ptr %10, align 8, !tbaa !4
  %32 = getelementptr inbounds nuw %struct.lstopo_output, ptr %31, i32 0, i32 41
  %33 = load i32, ptr %32, align 8, !tbaa !38
  store i32 %33, ptr %23, align 4, !tbaa !24
  %34 = load i32, ptr %14, align 4, !tbaa !24
  %35 = icmp ne i32 %34, 0
  br i1 %35, label %36, label %39

36:                                               ; preds = %9
  %37 = load i32, ptr %16, align 4, !tbaa !24
  %38 = icmp ne i32 %37, 0
  br i1 %38, label %40, label %39

39:                                               ; preds = %36, %9
  store i32 1, ptr %24, align 4
  br label %99

40:                                               ; preds = %36
  %41 = load i32, ptr %20, align 4, !tbaa !24
  %42 = icmp ne i32 %41, 0
  br i1 %42, label %43, label %50

43:                                               ; preds = %40
  store i32 1, ptr %21, align 4, !tbaa !24
  %44 = load i32, ptr %20, align 4, !tbaa !24
  %45 = shl i32 1, %44
  store i32 %45, ptr %22, align 4, !tbaa !24
  %46 = load i32, ptr %20, align 4, !tbaa !24
  %47 = add i32 1, %46
  %48 = load i32, ptr %23, align 4, !tbaa !24
  %49 = mul i32 %48, %47
  store i32 %49, ptr %23, align 4, !tbaa !24
  br label %50

50:                                               ; preds = %43, %40
  %51 = load i32, ptr %13, align 4, !tbaa !24
  %52 = mul i32 %51, 20
  store i32 %52, ptr %13, align 4, !tbaa !24
  %53 = load i32, ptr %15, align 4, !tbaa !24
  %54 = mul i32 %53, 20
  store i32 %54, ptr %15, align 4, !tbaa !24
  %55 = load i32, ptr %14, align 4, !tbaa !24
  %56 = mul i32 %55, 20
  store i32 %56, ptr %14, align 4, !tbaa !24
  %57 = load i32, ptr %16, align 4, !tbaa !24
  %58 = mul i32 %57, 20
  store i32 %58, ptr %16, align 4, !tbaa !24
  %59 = load ptr, ptr %19, align 8, !tbaa !23
  %60 = load i32, ptr %21, align 4, !tbaa !24
  %61 = load i32, ptr %23, align 4, !tbaa !24
  %62 = load ptr, ptr %11, align 8, !tbaa !29
  %63 = getelementptr inbounds nuw %struct.lstopo_color, ptr %62, i32 0, i32 4
  %64 = getelementptr inbounds nuw %struct.lstopo_color_private_fig_s, ptr %63, i32 0, i32 0
  %65 = load i32, ptr %64, align 8, !tbaa !35
  %66 = load i32, ptr %12, align 4, !tbaa !24
  %67 = load i32, ptr %22, align 4, !tbaa !24
  %68 = call i32 (ptr, ptr, ...) @fprintf(ptr noundef %59, ptr noundef @.str.11, i32 noundef %60, i32 noundef %61, i32 noundef %65, i32 noundef %66, i32 noundef %67) #7
  %69 = load ptr, ptr %19, align 8, !tbaa !23
  %70 = load i32, ptr %13, align 4, !tbaa !24
  %71 = load i32, ptr %15, align 4, !tbaa !24
  %72 = call i32 (ptr, ptr, ...) @fprintf(ptr noundef %69, ptr noundef @.str.12, i32 noundef %70, i32 noundef %71) #7
  %73 = load ptr, ptr %19, align 8, !tbaa !23
  %74 = load i32, ptr %13, align 4, !tbaa !24
  %75 = load i32, ptr %14, align 4, !tbaa !24
  %76 = add i32 %74, %75
  %77 = load i32, ptr %15, align 4, !tbaa !24
  %78 = call i32 (ptr, ptr, ...) @fprintf(ptr noundef %73, ptr noundef @.str.12, i32 noundef %76, i32 noundef %77) #7
  %79 = load ptr, ptr %19, align 8, !tbaa !23
  %80 = load i32, ptr %13, align 4, !tbaa !24
  %81 = load i32, ptr %14, align 4, !tbaa !24
  %82 = add i32 %80, %81
  %83 = load i32, ptr %15, align 4, !tbaa !24
  %84 = load i32, ptr %16, align 4, !tbaa !24
  %85 = add i32 %83, %84
  %86 = call i32 (ptr, ptr, ...) @fprintf(ptr noundef %79, ptr noundef @.str.12, i32 noundef %82, i32 noundef %85) #7
  %87 = load ptr, ptr %19, align 8, !tbaa !23
  %88 = load i32, ptr %13, align 4, !tbaa !24
  %89 = load i32, ptr %15, align 4, !tbaa !24
  %90 = load i32, ptr %16, align 4, !tbaa !24
  %91 = add i32 %89, %90
  %92 = call i32 (ptr, ptr, ...) @fprintf(ptr noundef %87, ptr noundef @.str.12, i32 noundef %88, i32 noundef %91) #7
  %93 = load ptr, ptr %19, align 8, !tbaa !23
  %94 = load i32, ptr %13, align 4, !tbaa !24
  %95 = load i32, ptr %15, align 4, !tbaa !24
  %96 = call i32 (ptr, ptr, ...) @fprintf(ptr noundef %93, ptr noundef @.str.12, i32 noundef %94, i32 noundef %95) #7
  %97 = load ptr, ptr %19, align 8, !tbaa !23
  %98 = call i32 (ptr, ptr, ...) @fprintf(ptr noundef %97, ptr noundef @.str.13) #7
  store i32 0, ptr %24, align 4
  br label %99

99:                                               ; preds = %50, %39
  call void @llvm.lifetime.end.p0(i64 4, ptr %23) #7
  call void @llvm.lifetime.end.p0(i64 4, ptr %22) #7
  call void @llvm.lifetime.end.p0(i64 4, ptr %21) #7
  call void @llvm.lifetime.end.p0(i64 4, ptr %20) #7
  call void @llvm.lifetime.end.p0(i64 8, ptr %19) #7
  %100 = load i32, ptr %24, align 4
  switch i32 %100, label %102 [
    i32 0, label %101
    i32 1, label %101
  ]

101:                                              ; preds = %99, %99
  ret void

102:                                              ; preds = %99
  unreachable
}