; Function Attrs: nofree nounwind uwtable
define internal void @fig_box(ptr noundef readonly captures(none) %0, ptr noundef readonly captures(none) %1, i32 noundef %2, i32 noundef %3, i32 noundef %4, i32 noundef %5, i32 noundef %6, ptr noundef readonly captures(address_is_null) %7, i32 %8) #5 {
  %10 = getelementptr inbounds nuw i8, ptr %0, i64 24
  %11 = load ptr, ptr %10, align 8, !tbaa !22
  %12 = getelementptr i8, ptr %0, i64 1304
  %.val = load i32, ptr %12, align 8, !tbaa !32
  %13 = icmp ne i32 %.val, 0
  %14 = icmp ne ptr %7, null
  %or.cond.i = and i1 %14, %13
  br i1 %or.cond.i, label %15, label %lstopo_obj_cpukind_style.exit

15:                                               ; preds = %9
  %16 = getelementptr inbounds nuw i8, ptr %7, i64 232
  %17 = load ptr, ptr %16, align 8, !tbaa !33
  %.not.i = icmp eq ptr %17, null
  br i1 %.not.i, label %lstopo_obj_cpukind_style.exit, label %18

18:                                               ; preds = %15
  %19 = getelementptr inbounds nuw i8, ptr %17, i64 68
  %20 = load i32, ptr %19, align 4, !tbaa !40
  br label %lstopo_obj_cpukind_style.exit

lstopo_obj_cpukind_style.exit:                    ; preds = %9, %15, %18
  %.0.i = phi i32 [ %20, %18 ], [ 0, %15 ], [ 0, %9 ]
  %21 = icmp ne i32 %4, 0
  %22 = icmp ne i32 %6, 0
  %or.cond = and i1 %21, %22
  br i1 %or.cond, label %23, label %43

23:                                               ; preds = %lstopo_obj_cpukind_style.exit
  %24 = getelementptr inbounds nuw i8, ptr %0, i64 944
  %25 = load i32, ptr %24, align 8, !tbaa !46
  %.not = icmp ne i32 %.0.i, 0
  %26 = shl nuw i32 1, %.0.i
  %27 = add i32 %.0.i, 1
  %28 = mul i32 %25, %27
  %.041 = zext i1 %.not to i32
  %.040 = select i1 %.not, i32 %26, i32 0
  %29 = mul i32 %3, 20
  %30 = mul i32 %5, 20
  %31 = getelementptr inbounds nuw i8, ptr %1, i64 16
  %32 = load i32, ptr %31, align 8, !tbaa !31
  %33 = tail call i32 (ptr, ptr, ...) @fprintf(ptr noundef %11, ptr noundef nonnull @.str.11, i32 noundef %.041, i32 noundef %28, i32 noundef %32, i32 noundef %2, i32 noundef %.040) #9
  %34 = tail call i32 (ptr, ptr, ...) @fprintf(ptr noundef %11, ptr noundef nonnull @.str.12, i32 noundef %29, i32 noundef %30) #9
  %35 = add i32 %4, %3
  %36 = mul i32 %35, 20
  %37 = tail call i32 (ptr, ptr, ...) @fprintf(ptr noundef %11, ptr noundef nonnull @.str.12, i32 noundef %36, i32 noundef %30) #9
  %38 = add i32 %6, %5
  %39 = mul i32 %38, 20
  %40 = tail call i32 (ptr, ptr, ...) @fprintf(ptr noundef %11, ptr noundef nonnull @.str.12, i32 noundef %36, i32 noundef %39) #9
  %41 = tail call i32 (ptr, ptr, ...) @fprintf(ptr noundef %11, ptr noundef nonnull @.str.12, i32 noundef %29, i32 noundef %39) #9
  %42 = tail call i32 (ptr, ptr, ...) @fprintf(ptr noundef %11, ptr noundef nonnull @.str.12, i32 noundef %29, i32 noundef %30) #9
  %fputc = tail call i32 @fputc(i32 10, ptr %11)
  br label %43

43:                                               ; preds = %lstopo_obj_cpukind_style.exit, %23
  ret void
}